(lp1
(dp2
S'Username'
p3
S'hh8c102136'
p4
sS'Account'
p5
S'Pinnacle'
p6
sS'Income'
p7
S'2.37'
p8
sS'Waterlevel'
p9
S'1.033'
p10
sS'Amount'
p11
S'500'
p12
sS'Score'
p13
S'0:0'
p14
sS'Time'
p15
S'00:25:13'
p16
sS'Balance'
p17
S'179692.7'
p18
sS'Status'
p19
S'Success'
p20
sS'Deal'
p21
V\u5c0f\u74031.25
p22
sS'Game'
p23
S'KuPS <> Inter Turku'
p24
sS'Date'
p25
S'2015-07-20'
p26
sS'Ticket'
p27
S'482673476'
p28
sS'Odd'
p29
S'0.909'
p30
sa(dp31
g3
S'ehsc1aa002'
p32
sg5
S'Sbo'
p33
sg7
g8
sg9
g10
sg11
S'452'
p34
sg13
S'0:0'
p35
sg15
g16
sg17
S'199459.7'
p36
sg19
S'Waiting'
p37
sg21
V\u5927\u74031.25
p38
sg23
g24
sg25
g26
sg27
S'4646833572'
p39
sg29
S'1.1111'
p40
sa(dp41
g3
S'ehsc1aa006'
p42
sg5
S'Sbo'
p43
sg7
S'86.56'
p44
sg9
S'1.028'
p45
sg11
S'17114'
p46
sg13
S'0:1'
p47
sg15
S'00:43:01'
p48
sg17
S'185369.7'
p49
sg19
g37
sg21
V\u5c0f\u74031.5
p50
sg23
S'Mordovia Saransk <> Lokomotiv Moscow'
p51
sg25
g26
sg27
S'4646867128'
p52
sg29
S'0.23'
p53
sa(dp54
g3
S'yanjiang02'
p55
sg5
S'Zhibo'
p56
sg7
S'603.00'
p57
sg9
S'1.061'
p58
sg11
S'20396'
p59
sg13
S'1:1'
p60
sg15
S'00:44:53'
p61
sg17
S'79793.85'
p62
sg19
VSuccess
p63
sg21
V\u5927\u74033
p64
sg23
S'Helsingborgs <> AIK Solna'
p65
sg25
g26
sg27
S'1507031409013567'
p66
sg29
S'1.0101'
p67
sa(dp68
g3
S'hh8c102136'
p69
sg5
S'Pinnacle'
p70
sg7
S'5.44'
p71
sg9
S'1.026'
p72
sg11
S'468'
p73
sg13
S'1:1'
p74
sg15
S'00:58:29'
p75
sg17
S'179224.7'
p76
sg19
g20
sg21
V\u5927\u74032.5
p77
sg23
S'KuPS <> Inter Turku'
p78
sg25
g26
sg27
S'482683046'
p79
sg29
S'1.08'
p80
sa(dp81
g3
S'ehsc1aa004'
p82
sg5
S'Sbo'
p83
sg7
S'127.44'
p84
sg9
S'1.021'
p85
sg11
S'20000'
p86
sg13
S'1:1'
p87
sg15
S'01:08:36'
p88
sg17
S'237106.6'
p89
sg19
g37
sg21
V\u5c0f\u74032.5
p90
sg23
S'KuPS <> Inter Turku'
p91
sg25
g26
sg27
S'4646915481'
p92
sg29
S'0.58'
p93
sa(dp94
g3
S'ehsc1aa004'
p95
sg5
S'Sbo'
p96
sg7
g84
sg9
g85
sg11
S'11472'
p97
sg13
S'1:1'
p98
sg15
g88
sg17
S'225634.8'
p99
sg19
g37
sg21
V\u5927\u74032.5
p100
sg23
g91
sg25
g26
sg27
S'4646915599'
p101
sg29
S'1.7544'
p102
sa(dp103
g3
S'ehsc1aa010'
p104
sg5
S'Sbo'
p105
sg7
S'147.50'
p106
sg9
S'1.032'
p107
sg11
S'19999'
p108
sg13
S'2:1'
p109
sg15
S'01:13:28'
p110
sg17
S'171193.5'
p111
sg19
g37
sg21
V\u5c0f\u74033.5
p112
sg23
S'Helsingborgs <> AIK Solna'
p113
sg25
g26
sg27
S'4646926771'
p114
sg29
S'0.31'
p115
sa(dp116
g3
S'ehsc1aa004'
p117
sg5
S'Sbo'
p118
sg7
S'68.16'
p119
sg9
S'1.024'
p120
sg11
S'18200'
p121
sg13
S'1:1'
p122
sg15
S'01:16:30'
p123
sg17
S'207434.8'
p124
sg19
g37
sg21
V\u5c0f\u74032.5
p125
sg23
S'KuPS <> Inter Turku'
p126
sg25
g26
sg27
S'4646933035'
p127
sg29
S'0.2'
p128
sa(dp129
g3
S'hh8c102137'
p130
sg5
S'Pinnacle'
p131
sg7
g119
sg9
g120
sg11
S'3568'
p132
sg13
S'1:1'
p133
sg15
g123
sg17
S'190484.8'
p134
sg19
g20
sg21
V\u5927\u74032.5
p135
sg23
g126
sg25
g26
sg27
S'482685766'
p136
sg29
S'5.12'
p137
sa(dp138
g3
S'ehsc1aa003'
p139
sg5
S'Sbo'
p140
sg7
S'-8.18'
p141
sg9
S'1.024'
p142
sg11
S'500'
p143
sg13
S'1:1'
p144
sg15
S'01:16:52'
p145
sg17
S'140919.9'
p146
sg19
g37
sg21
V\u5c0f\u74032.5
p147
sg23
S'KuPS <> Inter Turku'
p148
sg25
g26
sg27
S'4646933034'
p149
sg29
S'0.2'
p150
sa(dp151
g3
S'ehsc1aa003'
p152
sg5
S'Sbo'
p153
sg7
g141
sg9
g142
sg11
S'108'
p154
sg13
S'1:1'
p155
sg15
g145
sg17
S'140812.1'
p156
sg19
g37
sg21
V\u5927\u74032.5
p157
sg23
g148
sg25
g26
sg27
S'4646933942'
p158
sg29
S'4.5455'
p159
sa(dp160
g3
S'sos006'
p161
sg5
S'Zhibo'
p162
sg7
S'0.01'
p163
sg9
S'1.085'
p164
sg11
S'6759'
p165
sg13
S'1:1'
p166
sg15
S'02:23:17'
p167
sg17
S'128219.1'
p168
sg19
Nsg21
V\u5c0f\u74032.75
p169
sg23
S'Sevilla (n) <> AD Alcorcon'
p170
sg25
g26
sg27
S'1507191426328570'
p171
sg29
S'0.89'
p172
sa(dp173
g3
S'ehsc1aa006'
p174
sg5
S'Sbo'
p175
sg7
g163
sg9
g164
sg11
S'6015'
p176
sg13
S'1:1'
p177
sg15
g167
sg17
S'200448.1'
p178
sg19
g37
sg21
V\u5927\u74032.75
p179
sg23
g170
sg25
g26
sg27
S'4647053507'
p180
sg29
S'1.1236'
p181
sa(dp182
g3
S'ehsc1aa006'
p183
sg5
S'Sbo'
p184
sg7
S'74.33'
p185
sg9
S'1.021'
p186
sg11
S'7195'
p187
sg13
S'1:1'
p188
sg15
S'02:29:08'
p189
sg17
S'193253.6'
p190
sg19
g37
sg21
V\u5927\u74032.5
p191
sg23
S'Sevilla (n) <> AD Alcorcon'
p192
sg25
g26
sg27
S'4647062249'
p193
sg29
S'1.0309'
p194
sa(dp195
g3
S'sos004'
p196
sg5
S'Zhibo'
p197
sg7
S'164.62'
p198
sg9
S'1.022'
p199
sg11
S'14457'
p200
sg13
S'0:0'
p201
sg15
S'03:24:38'
p202
sg17
S'247256.2'
p203
sg19
Nsg21
V\u5c0f\u74031.5
p204
sg23
S'Fluminense <> Vasco da Gama'
p205
sg25
g26
sg27
S'1507191527538256'
p206
sg29
S'1.0638'
p207
sa(dp208
g3
S'hh8c102137'
p209
sg5
S'Pinnacle'
p210
sg7
g198
sg9
g199
sg11
S'15215'
p211
sg13
S'0:0'
p212
sg15
g202
sg17
S'161763.8'
p213
sg19
g20
sg21
V\u5927\u74031.5
p214
sg23
g205
sg25
g26
sg27
S'482720765'
p215
sg29
S'0.961'
p216
sa(dp217
g3
S'sos003'
p218
sg5
S'Zhibo'
p219
sg7
S'-8.45'
p220
sg9
S'1.023'
p221
sg11
S'13487'
p222
sg13
S'0:0'
p223
sg15
S'03:41:26'
p224
sg17
S'146881.7'
p225
sg19
Nsg21
V\u5c0f\u74031
p226
sg23
S'Figueirense <> Coritiba'
p227
sg25
g26
sg27
S'1507191544015726'
p228
sg29
S'1.1494'
p229
sa(dp230
g3
S'ehsc1aa010'
p231
sg5
S'Sbo'
p232
sg7
S'64.80'
p233
sg9
S'1.021'
p234
sg11
S'18306'
p235
sg13
S'0:1'
p236
sg15
S'03:44:57'
p237
sg17
S'152937.5'
p238
sg19
g37
sg21
V\u5c0f\u74031.5
p239
sg23
S'Anzhi Makhachkala <> Kryliya Sovetov'
p240
sg25
g26
sg27
S'4647145889'
p241
sg29
S'0.21'
p242
sa(dp243
g3
S'hh8c102134'
p244
sg5
S'Pinnacle'
p245
sg7
g233
sg9
g234
sg11
S'3780'
p246
sg13
S'0:1'
p247
sg15
g237
sg17
S'175513.5'
p248
sg19
g20
sg21
V\u5927\u74031.5
p249
sg23
g240
sg25
g26
sg27
S'482724322'
p250
sg29
S'4.86'
p251
sa(dp252
g3
S'hh8c102139'
p253
sg5
S'Pinnacle'
p254
sg7
S'-23.42'
p255
sg9
S'1.021'
p256
sg11
S'7381'
p257
sg13
S'1:2'
p258
sg15
S'04:12:08'
p259
sg17
S'193417.8'
p260
sg19
g20
sg21
V\u5927\u74034
p261
sg23
S'San Martin San Juan <> Atletico Huracan'
p262
sg25
g26
sg27
S'482734211'
p263
sg29
S'0.884'
p264
sa(dp265
g3
S'ehsc1aa003'
p266
sg5
S'Sbo'
p267
sg7
S'178.72'
p268
sg9
S'1.030'
p269
sg11
S'10170'
p270
sg13
S'0:0'
p271
sg15
S'04:28:16'
p272
sg17
S'131244.6'
p273
sg19
g37
sg21
V\u5927\u74030.5
p274
sg23
S'Figueirense <> Coritiba'
p275
sg25
g26
sg27
S'4647191947'
p276
sg29
S'1.4925'
p277
sa(dp278
g3
S'ehsc1aa009'
p279
sg5
S'Sbo'
p280
sg7
S'19.39'
p281
sg9
S'1.025'
p282
sg11
S'7906'
p283
sg13
S'0:0'
p284
sg15
S'04:33:25'
p285
sg17
S'197841.3'
p286
sg19
g37
sg21
V\u5c0f\u74030.5
p287
sg23
S'Club Atletico Tigre <> Newells Old Boys'
p288
sg25
g26
sg27
S'4647202504'
p289
sg29
S'0.61'
p290
sa(dp291
g3
S'hh8c102133'
p292
sg5
S'Pinnacle'
p293
sg7
g281
sg9
g282
sg11
S'4803'
p294
sg13
S'0:0'
p295
sg15
g285
sg17
S'157005.4'
p296
sg19
g20
sg21
V\u5927\u74030.5
p297
sg23
g288
sg25
g26
sg27
S'482736923'
p298
sg29
S'1.65'
p299
sa(dp300
g3
S'ehsc1aa009'
p301
sg5
S'Sbo'
p302
sg7
S'-0.01'
p303
sg9
S'1.049'
p304
sg11
S'10690'
p305
sg13
S'0:0'
p306
sg15
S'04:42:06'
p307
sg17
S'187151.3'
p308
sg19
g37
sg21
V\u5c0f\u74030.5
p309
sg23
S'Club Atletico Tigre <> Newells Old Boys'
p310
sg25
g26
sg27
S'4647217902'
p311
sg29
S'0.23'
p312
sa(dp313
g3
S'ehsc1aa009'
p314
sg5
S'Sbo'
p315
sg7
g303
sg9
g304
sg11
S'2458'
p316
sg13
S'0:0'
p317
sg15
g307
sg17
S'184693.5'
p318
sg19
g37
sg21
V\u5927\u74030.5
p319
sg23
g310
sg25
g26
sg27
S'4647217916'
p320
sg29
S'4.3478'
p321
sa(dp322
g3
S'ehsc1aa007'
p323
sg5
S'Sbo'
p324
sg7
S'-19.78'
p325
sg9
S'1.036'
p326
sg11
S'15000'
p327
sg13
S'2:2'
p328
sg15
S'04:43:29'
p329
sg17
S'153957.9'
p330
sg19
g37
sg21
V\u5c0f\u74034.5
p331
sg23
S'San Martin San Juan <> Atletico Huracan'
p332
sg25
g26
sg27
S'4647219989'
p333
sg29
S'0.28'
p334
sa(dp335
g3
S'hh8c102139'
p336
sg5
S'Pinnacle'
p337
sg7
g325
sg9
g326
sg11
S'4219'
p338
sg13
S'2:2'
p339
sg15
g329
sg17
S'189198.8'
p340
sg19
g20
sg21
V\u5927\u74034.5
p341
sg23
g332
sg25
g26
sg27
S'482739040'
p342
sg29
S'3.55'
p343
sa.