(lp1
(dp2
S'Username'
p3
S'ck8t731001'
p4
sS'Account'
p5
S'Pinnacle'
p6
sS'Income'
p7
S'-2.25'
p8
sS'Waterlevel'
p9
S'0.991'
p10
sS'Amount'
p11
S'612'
p12
sS'Score'
p13
S'0:2'
p14
sS'Time'
p15
S'02:08:35'
p16
sS'Balance'
p17
S'203244.7'
p18
sS'Status'
p19
V\u975ePonnacle\u8d26\u5355
p20
sS'Deal'
p21
V\u5927\u74033.25
p22
sS'Game'
p23
S'Sarpsborg 08 <> Molde'
p24
sS'Date'
p25
S'2015-07-15'
p26
sS'Ticket'
p27
S'479387645'
p28
sS'Odd'
p29
S'0.813'
p30
sa(dp31
g3
S'ehet711006'
p32
sg5
S'Sbo'
p33
sg7
g8
sg9
g10
sg11
S'500'
p34
sg13
S'0:2'
p35
sg15
g16
sg17
S'349670.7'
p36
sg19
S'Waiting'
p37
sg21
V\u5c0f\u74033.25
p38
sg23
g24
sg25
g26
sg27
S'4622632947'
p39
sg29
S'1.2195'
p40
sa(dp41
g3
S'ck8t731001'
p42
sg5
S'Pinnacle'
p43
sg7
S'-2.25'
p44
sg9
S'0.991'
p45
sg11
S'612'
p46
sg13
S'0:2'
p47
sg15
S'02:08:40'
p48
sg17
S'202632.7'
p49
sg19
g20
sg21
V\u5927\u74033.25
p50
sg23
S'Sarpsborg 08 <> Molde'
p51
sg25
g26
sg27
S'479387712'
p52
sg29
S'0.813'
p53
sa(dp54
g3
S'ehet711006'
p55
sg5
S'Sbo'
p56
sg7
g44
sg9
g45
sg11
S'500'
p57
sg13
S'0:2'
p58
sg15
g48
sg17
S'349171.3'
p59
sg19
g37
sg21
V\u5c0f\u74033.25
p60
sg23
g51
sg25
g26
sg27
S'4622633076'
p61
sg29
S'1.2195'
p62
sa(dp63
g3
S'ck8t731001'
p64
sg5
S'Pinnacle'
p65
sg7
S'-8.97'
p66
sg9
S'0.991'
p67
sg11
S'612'
p68
sg13
S'0:2'
p69
sg15
S'02:09:05'
p70
sg17
S'202020.7'
p71
sg19
g20
sg21
V\u5927\u74033.25
p72
sg23
S'Sarpsborg 08 <> Molde'
p73
sg25
g26
sg27
S'479387719'
p74
sg29
S'0.813'
p75
sa(dp76
g3
S'yanjing05'
p77
sg5
S'Zhibo'
p78
sg7
S'0.62'
p79
sg9
S'1.004'
p80
sg11
S'500'
p81
sg13
S'1:0'
p82
sg15
S'02:10:53'
p83
sg17
S'94598.06'
p84
sg19
g37
sg21
V\u5c0f\u74032
p85
sg23
S'Luzern (n) <> Spartak Moscow'
p86
sg25
g26
sg27
S'1507031410492823'
p87
sg29
S'1.0753'
p88
sa(dp89
g3
S'ck8t731004'
p90
sg5
S'Pinnacle'
p91
sg7
g79
sg9
g80
sg11
S'536'
p92
sg13
S'1:0'
p93
sg15
g83
sg17
S'200983.6'
p94
sg19
g20
sg21
V\u5927\u74032
p95
sg23
g86
sg25
g26
sg27
S'479388026'
p96
sg29
S'0.934'
p97
sa(dp98
g3
S'yanjing05'
p99
sg5
S'Zhibo'
p100
sg7
S'0.62'
p101
sg9
S'1.004'
p102
sg11
S'500'
p103
sg13
S'1:0'
p104
sg15
S'02:11:01'
p105
sg17
S'94098.06'
p106
sg19
g37
sg21
V\u5c0f\u74032
p107
sg23
S'Luzern (n) <> Spartak Moscow'
p108
sg25
g26
sg27
S'1507031410547721'
p109
sg29
S'1.0753'
p110
sa(dp111
g3
S'yanjiang02'
p112
sg5
S'Zhibo'
p113
sg7
S'2.77'
p114
sg9
S'1.014'
p115
sg11
S'534'
p116
sg13
S'0:3'
p117
sg15
S'02:19:40'
p118
sg17
S'96183.9'
p119
sg19
g37
sg21
V\u5927\u74034
p120
sg23
S'Sarpsborg 08 <> Molde'
p121
sg25
g26
sg27
S'1507031419377575'
p122
sg29
S'0.94'
p123
sa(dp124
g3
S'ck8t731002'
p125
sg5
S'Pinnacle'
p126
sg7
S'-2.00'
p127
sg9
S'0.991'
p128
sg11
S'422'
p129
sg13
S'0:3'
p130
sg15
S'02:24:48'
p131
sg17
S'199876.1'
p132
sg19
g20
sg21
V\u5ba2\u961f-0.25
p133
sg23
S'Sarpsborg 08 <> Molde'
p134
sg25
g26
sg27
S'479391165'
p135
sg29
S'1.18'
p136
sa(dp137
g3
S'ehet711005'
p138
sg5
S'Sbo'
p139
sg7
g127
sg9
g128
sg11
S'500'
p140
sg13
S'0:3'
p141
sg15
g131
sg17
S'92591.35'
p142
sg19
g37
sg21
V\u4e3b\u961f0.25
p143
sg23
g134
sg25
g26
sg27
S'4622656198'
p144
sg29
S'0.84'
p145
sa(dp146
g3
S'ck8t731002'
p147
sg5
S'Pinnacle'
p148
sg7
S'-2.00'
p149
sg9
S'0.991'
p150
sg11
S'422'
p151
sg13
S'0:3'
p152
sg15
S'02:24:53'
p153
sg17
S'199454.1'
p154
sg19
g20
sg21
V\u5ba2\u961f-0.25
p155
sg23
S'Sarpsborg 08 <> Molde'
p156
sg25
g26
sg27
S'479391167'
p157
sg29
S'1.18'
p158
sa(dp159
g3
S'ehet711005'
p160
sg5
S'Sbo'
p161
sg7
g149
sg9
g150
sg11
S'500'
p162
sg13
S'0:3'
p163
sg15
g153
sg17
S'92091.35'
p164
sg19
g37
sg21
V\u4e3b\u961f0.25
p165
sg23
g156
sg25
g26
sg27
S'4622656330'
p166
sg29
S'0.84'
p167
sa(dp168
g3
S'ehet711005'
p169
sg5
S'Sbo'
p170
sg7
S'-2.00'
p171
sg9
S'0.991'
p172
sg11
S'500'
p173
sg13
S'0:3'
p174
sg15
S'02:24:58'
p175
sg17
S'91591.35'
p176
sg19
g37
sg21
V\u4e3b\u961f0.25
p177
sg23
S'Sarpsborg 08 <> Molde'
p178
sg25
g26
sg27
S'4622656475'
p179
sg29
S'0.84'
p180
sa(dp181
g3
S'ck8t731003'
p182
sg5
S'Pinnacle'
p183
sg7
S'-1.00'
p184
sg9
S'0.992'
p185
sg11
S'456'
p186
sg13
S'1:1'
p187
sg15
S'19:06:50'
p188
sg17
S'197620.5'
p189
sg19
g20
sg21
V\u4e3b\u961f-0.5
p190
sg23
S'JEF United Ichihara Chiba <> FC Gifu'
p191
sg25
g26
sg27
S'479540329'
p192
sg29
S'1.09'
p193
sa(dp194
g3
S'ehet711004'
p195
sg5
S'Sbo'
p196
sg7
g184
sg9
g185
sg11
S'500'
p197
sg13
S'1:1'
p198
sg15
g188
sg17
S'275212.3'
p199
sg19
g37
sg21
V\u5ba2\u961f0.5
p200
sg23
g191
sg25
g26
sg27
S'4623831341'
p201
sg29
S'0.91'
p202
sa(dp203
g3
S'ck8t731003'
p204
sg5
S'Pinnacle'
p205
sg7
S'-1.00'
p206
sg9
S'0.992'
p207
sg11
S'456'
p208
sg13
S'1:1'
p209
sg15
S'19:06:54'
p210
sg17
S'197164.5'
p211
sg19
g20
sg21
V\u4e3b\u961f-0.5
p212
sg23
S'JEF United Ichihara Chiba <> FC Gifu'
p213
sg25
g26
sg27
S'479540336'
p214
sg29
S'1.09'
p215
sa(dp216
g3
S'ehet711004'
p217
sg5
S'Sbo'
p218
sg7
g206
sg9
g207
sg11
S'500'
p219
sg13
S'1:1'
p220
sg15
g210
sg17
S'274712.3'
p221
sg19
g37
sg21
V\u5ba2\u961f0.5
p222
sg23
g213
sg25
g26
sg27
S'4623831477'
p223
sg29
S'0.91'
p224
sa(dp225
g3
S'ehet711002'
p226
sg5
S'Sbo'
p227
sg7
S'-1.00'
p228
sg9
S'0.993'
p229
sg11
S'500'
p230
sg13
S'1:0'
p231
sg15
S'19:16:05'
p232
sg17
S'298874.6'
p233
sg19
g37
sg21
V\u5c0f\u74032.25
p234
sg23
S'Jubilo Iwata <> Roasso Kumamoto'
p235
sg25
g26
sg27
S'4623852684'
p236
sg29
S'0.73'
p237
sa(dp238
g3
S'ehet711002'
p239
sg5
S'Sbo'
p240
sg7
S'-10.33'
p241
sg9
S'0.993'
p242
sg11
S'508'
p243
sg13
S'1:0'
p244
sg15
S'19:16:21'
p245
sg17
S'298366.6'
p246
sg19
g37
sg21
V\u5c0f\u74032.25
p247
sg23
S'Jubilo Iwata <> Roasso Kumamoto'
p248
sg25
g26
sg27
S'4623853118'
p249
sg29
S'0.7'
p250
sa(dp251
g3
S'yanjing05'
p252
sg5
S'Zhibo'
p253
sg7
S'-0.50'
p254
sg9
S'1.000'
p255
sg11
S'500'
p256
sg13
S'2:1'
p257
sg15
S'19:17:25'
p258
sg17
S'93177.92'
p259
sg19
g37
sg21
V\u5c0f\u74034
p260
sg23
S'JEF United Ichihara Chiba <> FC Gifu'
p261
sg25
g26
sg27
S'1507040717225796'
p262
sg29
S'1.1111'
p263
sa(dp264
g3
S'ck8t731003'
p265
sg5
S'Pinnacle'
p266
sg7
S'-12.16'
p267
sg9
S'0.994'
p268
sg11
S'461'
p269
sg13
S'2:1'
p270
sg15
S'19:20:22'
p271
sg17
S'196703.5'
p272
sg19
g20
sg21
V\u4e3b\u961f-0.25
p273
sg23
S'JEF United Ichihara Chiba <> FC'
p274
sg25
g26
sg27
S'479543170'
p275
sg29
S'1.08'
p276
sa(dp277
g3
S'ehet711004'
p278
sg5
S'Sbo'
p279
sg7
g267
sg9
g268
sg11
S'510'
p280
sg13
S'2:1'
p281
sg15
g271
sg17
S'274202.3'
p282
sg19
g37
sg21
V\u5ba2\u961f0.25
p283
sg23
g274
sg25
g26
sg27
S'4623861832'
p284
sg29
S'0.88'
p285
sa(dp286
g3
S'yanjing05'
p287
sg5
S'Zhibo'
p288
sg7
S'4.70'
p289
sg9
S'1.000'
p290
sg11
S'500'
p291
sg13
S'2:1'
p292
sg15
S'19:20:46'
p293
sg17
S'92677.92'
p294
sg19
g37
sg21
V\u5c0f\u74034
p295
sg23
S'JEF United Ichihara Chiba <> FC Gifu'
p296
sg25
g26
sg27
S'1507040720096256'
p297
sg29
S'0.98'
p298
sa(dp299
g3
S'ck8t731004'
p300
sg5
S'Pinnacle'
p301
sg7
g289
sg9
g290
sg11
S'485'
p302
sg13
S'2:1'
p303
sg15
g293
sg17
S'200980.8'
p304
sg19
g20
sg21
V\u5927\u74034
p305
sg23
g296
sg25
g26
sg27
S'479543294'
p306
sg29
S'1.04'
p307
sa(dp308
g3
S'yanjing05'
p309
sg5
S'Zhibo'
p310
sg7
S'-1.38'
p311
sg9
S'0.995'
p312
sg11
S'500'
p313
sg13
S'2:1'
p314
sg15
S'19:21:04'
p315
sg17
S'92177.92'
p316
sg19
g37
sg21
V\u5c0f\u74034
p317
sg23
S'JEF United Ichihara Chiba <> FC Gifu'
p318
sg25
g26
sg27
S'1507040721011947'
p319
sg29
S'0.93'
p320
sa(dp321
g3
S'ck8t731004'
p322
sg5
S'Pinnacle'
p323
sg7
g311
sg9
g312
sg11
S'466'
p324
sg13
S'2:1'
p325
sg15
g315
sg17
S'200514.8'
p326
sg19
g20
sg21
V\u5927\u74034
p327
sg23
g318
sg25
g26
sg27
S'479543340'
p328
sg29
S'1.07'
p329
sa(dp330
g3
S'yanjing05'
p331
sg5
S'Zhibo'
p332
sg7
S'-2.18'
p333
sg9
S'0.994'
p334
sg11
S'500'
p335
sg13
S'3:1'
p336
sg15
S'19:27:58'
p337
sg17
S'90677.92'
p338
sg19
g37
sg21
V\u5c0f\u74034.75
p339
sg23
S'JEF United Ichihara Chiba <> FC Gifu'
p340
sg25
g26
sg27
S'1507040727553206'
p341
sg29
S'1.0638'
p342
sa(dp343
g3
S'ck8t731004'
p344
sg5
S'Pinnacle'
p345
sg7
g333
sg9
g334
sg11
S'533'
p346
sg13
S'3:1'
p347
sg15
g337
sg17
S'199073.8'
p348
sg19
g20
sg21
V\u5927\u74034.75
p349
sg23
g340
sg25
g26
sg27
S'479544730'
p350
sg29
S'0.934'
p351
sa(dp352
g3
S'ehet711003'
p353
sg5
S'Sbo'
p354
sg7
S'-0.25'
p355
sg9
S'0.999'
p356
sg11
S'500'
p357
sg13
S'3:1'
p358
sg15
S'19:32:11'
p359
sg17
S'307174'
p360
sg19
g37
sg21
V\u5c0f\u74034.5
p361
sg23
S'JEF United Ichihara Chiba <> FC Gifu'
p362
sg25
g26
sg27
S'4623888005'
p363
sg29
S'1.2195'
p364
sa(dp365
g3
S'ck8t731005'
p366
sg5
S'Pinnacle'
p367
sg7
S'-12.72'
p368
sg9
S'1.001'
p369
sg11
S'349'
p370
sg13
S'1:0'
p371
sg15
S'19:38:53'
p372
sg17
S'197600.5'
p373
sg19
g20
sg21
V\u5927\u74031.5
p374
sg23
S'Jubilo Iwata <> Roasso Kumamoto'
p375
sg25
g26
sg27
S'479546634'
p376
sg29
S'1.43'
p377
sa(dp378
g3
S'ck8t731005'
p379
sg5
S'Pinnacle'
p380
sg7
g368
sg9
g369
sg11
S'511'
p381
sg13
S'1:0'
p382
sg15
g372
sg17
S'197089.5'
p383
sg19
g20
sg21
V\u5c0f\u74031.5
p384
sg23
g375
sg25
g26
sg27
S'479546676'
p385
sg29
S'0.657'
p386
sa(dp387
g3
S'ehet711005'
p388
sg5
S'Sbo'
p389
sg7
S'0.00'
p390
sg9
S'1.000'
p391
sg11
S'500'
p392
sg13
S'0:1'
p393
sg15
S'19:40:10'
p394
sg17
S'93223.22'
p395
sg19
g37
sg21
V\u4e3b\u961f0
p396
sg23
S'Pohang Steelers <> Suwon Samsung Bluewings'
p397
sg25
g26
sg27
S'4623904786'
p398
sg29
S'0.59'
p399
sa.