(lp1
(dp2
S'Username'
p3
S'hh8c102136'
p4
sS'Account'
p5
S'Pinnacle'
p6
sS'Income'
p7
S'2.37'
p8
sS'Waterlevel'
p9
S'1.033'
p10
sS'Amount'
p11
S'500'
p12
sS'Score'
p13
S'0:0'
p14
sS'Time'
p15
S'00:25:13'
p16
sS'Balance'
p17
S'179692.7'
p18
sS'Status'
p19
S'Success'
p20
sS'Deal'
p21
V\u5c0f\u74031.25
p22
sS'Game'
p23
S'KuPS <> Inter Turku'
p24
sS'Date'
p25
S'2015-07-20'
p26
sS'Ticket'
p27
S'482673476'
p28
sS'Odd'
p29
S'0.909'
p30
sa(dp31
g3
S'ehsc1aa002'
p32
sg5
S'Sbo'
p33
sg7
g8
sg9
g10
sg11
S'452'
p34
sg13
S'0:0'
p35
sg15
g16
sg17
S'199459.7'
p36
sg19
S'Waiting'
p37
sg21
V\u5927\u74031.25
p38
sg23
g24
sg25
g26
sg27
S'4646833572'
p39
sg29
S'1.1111'
p40
sa(dp41
g3
S'ehsc1aa006'
p42
sg5
S'Sbo'
p43
sg7
S'86.56'
p44
sg9
S'1.028'
p45
sg11
S'17114'
p46
sg13
S'0:1'
p47
sg15
S'00:43:01'
p48
sg17
S'185369.7'
p49
sg19
g37
sg21
V\u5c0f\u74031.5
p50
sg23
S'Mordovia Saransk <> Lokomotiv Moscow'
p51
sg25
g26
sg27
S'4646867128'
p52
sg29
S'0.23'
p53
sa(dp54
g3
S'yanjiang02'
p55
sg5
S'Zhibo'
p56
sg7
S'603.00'
p57
sg9
S'1.061'
p58
sg11
S'20396'
p59
sg13
S'1:1'
p60
sg15
S'00:44:53'
p61
sg17
S'79793.85'
p62
sg19
g37
sg21
V\u5927\u74033
p63
sg23
S'Helsingborgs <> AIK Solna'
p64
sg25
g26
sg27
S'1507031409013567'
p65
sg29
S'1.0101'
p66
sa(dp67
g3
S'hh8c102136'
p68
sg5
S'Pinnacle'
p69
sg7
S'5.44'
p70
sg9
S'1.026'
p71
sg11
S'468'
p72
sg13
S'1:1'
p73
sg15
S'00:58:29'
p74
sg17
S'179224.7'
p75
sg19
g20
sg21
V\u5927\u74032.5
p76
sg23
S'KuPS <> Inter Turku'
p77
sg25
g26
sg27
S'482683046'
p78
sg29
S'1.08'
p79
sa(dp80
g3
S'ehsc1aa004'
p81
sg5
S'Sbo'
p82
sg7
S'127.44'
p83
sg9
S'1.021'
p84
sg11
S'20000'
p85
sg13
S'1:1'
p86
sg15
S'01:08:36'
p87
sg17
S'237106.6'
p88
sg19
g37
sg21
V\u5c0f\u74032.5
p89
sg23
S'KuPS <> Inter Turku'
p90
sg25
g26
sg27
S'4646915481'
p91
sg29
S'0.58'
p92
sa(dp93
g3
S'ehsc1aa004'
p94
sg5
S'Sbo'
p95
sg7
g83
sg9
g84
sg11
S'11472'
p96
sg13
S'1:1'
p97
sg15
g87
sg17
S'225634.8'
p98
sg19
g37
sg21
V\u5927\u74032.5
p99
sg23
g90
sg25
g26
sg27
S'4646915599'
p100
sg29
S'1.7544'
p101
sa(dp102
g3
S'ehsc1aa010'
p103
sg5
S'Sbo'
p104
sg7
S'147.50'
p105
sg9
S'1.032'
p106
sg11
S'19999'
p107
sg13
S'2:1'
p108
sg15
S'01:13:28'
p109
sg17
S'171193.5'
p110
sg19
g37
sg21
V\u5c0f\u74033.5
p111
sg23
S'Helsingborgs <> AIK Solna'
p112
sg25
g26
sg27
S'4646926771'
p113
sg29
S'0.31'
p114
sa(dp115
g3
S'ehsc1aa004'
p116
sg5
S'Sbo'
p117
sg7
S'68.16'
p118
sg9
S'1.024'
p119
sg11
S'18200'
p120
sg13
S'1:1'
p121
sg15
S'01:16:30'
p122
sg17
S'207434.8'
p123
sg19
g37
sg21
V\u5c0f\u74032.5
p124
sg23
S'KuPS <> Inter Turku'
p125
sg25
g26
sg27
S'4646933035'
p126
sg29
S'0.2'
p127
sa(dp128
g3
S'hh8c102137'
p129
sg5
S'Pinnacle'
p130
sg7
g118
sg9
g119
sg11
S'3568'
p131
sg13
S'1:1'
p132
sg15
g122
sg17
S'190484.8'
p133
sg19
g20
sg21
V\u5927\u74032.5
p134
sg23
g125
sg25
g26
sg27
S'482685766'
p135
sg29
S'5.12'
p136
sa(dp137
g3
S'ehsc1aa003'
p138
sg5
S'Sbo'
p139
sg7
S'-8.18'
p140
sg9
S'1.024'
p141
sg11
S'500'
p142
sg13
S'1:1'
p143
sg15
S'01:16:52'
p144
sg17
S'140919.9'
p145
sg19
g37
sg21
V\u5c0f\u74032.5
p146
sg23
S'KuPS <> Inter Turku'
p147
sg25
g26
sg27
S'4646933034'
p148
sg29
S'0.2'
p149
sa(dp150
g3
S'ehsc1aa003'
p151
sg5
S'Sbo'
p152
sg7
g140
sg9
g141
sg11
S'108'
p153
sg13
S'1:1'
p154
sg15
g144
sg17
S'140812.1'
p155
sg19
g37
sg21
V\u5927\u74032.5
p156
sg23
g147
sg25
g26
sg27
S'4646933942'
p157
sg29
S'4.5455'
p158
sa(dp159
g3
S'sos006'
p160
sg5
S'Zhibo'
p161
sg7
S'0.01'
p162
sg9
S'1.085'
p163
sg11
S'6759'
p164
sg13
S'1:1'
p165
sg15
S'02:23:17'
p166
sg17
S'128219.1'
p167
sg19
g37
sg21
V\u5c0f\u74032.75
p168
sg23
S'Sevilla (n) <> AD Alcorcon'
p169
sg25
g26
sg27
S'1507191426328570'
p170
sg29
S'0.89'
p171
sa(dp172
g3
S'ehsc1aa006'
p173
sg5
S'Sbo'
p174
sg7
g162
sg9
g163
sg11
S'6015'
p175
sg13
S'1:1'
p176
sg15
g166
sg17
S'200448.1'
p177
sg19
g37
sg21
V\u5927\u74032.75
p178
sg23
g169
sg25
g26
sg27
S'4647053507'
p179
sg29
S'1.1236'
p180
sa(dp181
g3
S'ehsc1aa006'
p182
sg5
S'Sbo'
p183
sg7
S'74.33'
p184
sg9
S'1.021'
p185
sg11
S'7195'
p186
sg13
S'1:1'
p187
sg15
S'02:29:08'
p188
sg17
S'193253.6'
p189
sg19
g37
sg21
V\u5927\u74032.5
p190
sg23
S'Sevilla (n) <> AD Alcorcon'
p191
sg25
g26
sg27
S'4647062249'
p192
sg29
S'1.0309'
p193
sa(dp194
g3
S'sos004'
p195
sg5
S'Zhibo'
p196
sg7
S'164.62'
p197
sg9
S'1.022'
p198
sg11
S'14457'
p199
sg13
S'0:0'
p200
sg15
S'03:24:38'
p201
sg17
S'247256.2'
p202
sg19
g37
sg21
V\u5c0f\u74031.5
p203
sg23
S'Fluminense <> Vasco da Gama'
p204
sg25
g26
sg27
S'1507191527538256'
p205
sg29
S'1.0638'
p206
sa(dp207
g3
S'hh8c102137'
p208
sg5
S'Pinnacle'
p209
sg7
g197
sg9
g198
sg11
S'15215'
p210
sg13
S'0:0'
p211
sg15
g201
sg17
S'161763.8'
p212
sg19
g20
sg21
V\u5927\u74031.5
p213
sg23
g204
sg25
g26
sg27
S'482720765'
p214
sg29
S'0.961'
p215
sa(dp216
g3
S'sos003'
p217
sg5
S'Zhibo'
p218
sg7
S'-8.45'
p219
sg9
S'1.023'
p220
sg11
S'13487'
p221
sg13
S'0:0'
p222
sg15
S'03:41:26'
p223
sg17
S'146881.7'
p224
sg19
g37
sg21
V\u5c0f\u74031
p225
sg23
S'Figueirense <> Coritiba'
p226
sg25
g26
sg27
S'1507191544015726'
p227
sg29
S'1.1494'
p228
sa(dp229
g3
S'ehsc1aa010'
p230
sg5
S'Sbo'
p231
sg7
S'64.80'
p232
sg9
S'1.021'
p233
sg11
S'18306'
p234
sg13
S'0:1'
p235
sg15
S'03:44:57'
p236
sg17
S'152937.5'
p237
sg19
g37
sg21
V\u5c0f\u74031.5
p238
sg23
S'Anzhi Makhachkala <> Kryliya Sovetov'
p239
sg25
g26
sg27
S'4647145889'
p240
sg29
S'0.21'
p241
sa(dp242
g3
S'hh8c102134'
p243
sg5
S'Pinnacle'
p244
sg7
g232
sg9
g233
sg11
S'3780'
p245
sg13
S'0:1'
p246
sg15
g236
sg17
S'175513.5'
p247
sg19
g20
sg21
V\u5927\u74031.5
p248
sg23
g239
sg25
g26
sg27
S'482724322'
p249
sg29
S'4.86'
p250
sa(dp251
g3
S'hh8c102139'
p252
sg5
S'Pinnacle'
p253
sg7
S'-23.42'
p254
sg9
S'1.021'
p255
sg11
S'7381'
p256
sg13
S'1:2'
p257
sg15
S'04:12:08'
p258
sg17
S'193417.8'
p259
sg19
g20
sg21
V\u5927\u74034
p260
sg23
S'San Martin San Juan <> Atletico Huracan'
p261
sg25
g26
sg27
S'482734211'
p262
sg29
S'0.884'
p263
sa(dp264
g3
S'ehsc1aa003'
p265
sg5
S'Sbo'
p266
sg7
S'178.72'
p267
sg9
S'1.030'
p268
sg11
S'10170'
p269
sg13
S'0:0'
p270
sg15
S'04:28:16'
p271
sg17
S'131244.6'
p272
sg19
g37
sg21
V\u5927\u74030.5
p273
sg23
S'Figueirense <> Coritiba'
p274
sg25
g26
sg27
S'4647191947'
p275
sg29
S'1.4925'
p276
sa(dp277
g3
S'ehsc1aa009'
p278
sg5
S'Sbo'
p279
sg7
S'19.39'
p280
sg9
S'1.025'
p281
sg11
S'7906'
p282
sg13
S'0:0'
p283
sg15
S'04:33:25'
p284
sg17
S'197841.3'
p285
sg19
g37
sg21
V\u5c0f\u74030.5
p286
sg23
S'Club Atletico Tigre <> Newells Old Boys'
p287
sg25
g26
sg27
S'4647202504'
p288
sg29
S'0.61'
p289
sa(dp290
g3
S'hh8c102133'
p291
sg5
S'Pinnacle'
p292
sg7
g280
sg9
g281
sg11
S'4803'
p293
sg13
S'0:0'
p294
sg15
g284
sg17
S'157005.4'
p295
sg19
g20
sg21
V\u5927\u74030.5
p296
sg23
g287
sg25
g26
sg27
S'482736923'
p297
sg29
S'1.65'
p298
sa(dp299
g3
S'ehsc1aa009'
p300
sg5
S'Sbo'
p301
sg7
S'-0.01'
p302
sg9
S'1.049'
p303
sg11
S'10690'
p304
sg13
S'0:0'
p305
sg15
S'04:42:06'
p306
sg17
S'187151.3'
p307
sg19
g37
sg21
V\u5c0f\u74030.5
p308
sg23
S'Club Atletico Tigre <> Newells Old Boys'
p309
sg25
g26
sg27
S'4647217902'
p310
sg29
S'0.23'
p311
sa(dp312
g3
S'ehsc1aa009'
p313
sg5
S'Sbo'
p314
sg7
g302
sg9
g303
sg11
S'2458'
p315
sg13
S'0:0'
p316
sg15
g306
sg17
S'184693.5'
p317
sg19
g37
sg21
V\u5927\u74030.5
p318
sg23
g309
sg25
g26
sg27
S'4647217916'
p319
sg29
S'4.3478'
p320
sa(dp321
g3
S'ehsc1aa007'
p322
sg5
S'Sbo'
p323
sg7
S'-19.78'
p324
sg9
S'1.036'
p325
sg11
S'15000'
p326
sg13
S'2:2'
p327
sg15
S'04:43:29'
p328
sg17
S'153957.9'
p329
sg19
g37
sg21
V\u5c0f\u74034.5
p330
sg23
S'San Martin San Juan <> Atletico Huracan'
p331
sg25
g26
sg27
S'4647219989'
p332
sg29
S'0.28'
p333
sa(dp334
g3
S'hh8c102139'
p335
sg5
S'Pinnacle'
p336
sg7
g324
sg9
g325
sg11
S'4219'
p337
sg13
S'2:2'
p338
sg15
g328
sg17
S'189198.8'
p339
sg19
g20
sg21
V\u5927\u74034.5
p340
sg23
g331
sg25
g26
sg27
S'482739040'
p341
sg29
S'3.55'
p342
sa.