(lp1
(dp2
S'Username'
p3
S'hh8c102136'
p4
sS'Account'
p5
S'Pinnacle'
p6
sS'Income'
p7
S'2.37'
p8
sS'Waterlevel'
p9
S'1.033'
p10
sS'Amount'
p11
S'500'
p12
sS'Score'
p13
S'0:0'
p14
sS'Time'
p15
S'00:25:13'
p16
sS'Balance'
p17
S'179692.7'
p18
sS'Status'
p19
S'Success'
p20
sS'Deal'
p21
V\u5c0f\u74031.25
p22
sS'Game'
p23
S'KuPS <> Inter Turku'
p24
sS'Date'
p25
S'2015-07-23'
p26
sS'Ticket'
p27
S'482673476'
p28
sS'Odd'
p29
S'0.909'
p30
sa(dp31
g3
S'ehsc1aa002'
p32
sg5
S'Sbo'
p33
sg7
g8
sg9
g10
sg11
S'452'
p34
sg13
S'0:0'
p35
sg15
g16
sg17
S'199459.7'
p36
sg19
S'Waiting'
p37
sg21
V\u5927\u74031.25
p38
sg23
g24
sg25
g26
sg27
S'4646833572'
p39
sg29
S'1.1111'
p40
sa(dp41
g3
S'ehsc1aa006'
p42
sg5
S'Sbo'
p43
sg7
S'86.56'
p44
sg9
S'1.028'
p45
sg11
S'17114'
p46
sg13
S'0:1'
p47
sg15
S'00:43:01'
p48
sg17
S'185369.7'
p49
sg19
S'Waiting'
p50
sg21
V\u5c0f\u74031.5
p51
sg23
S'Mordovia Saransk <> Lokomotiv Moscow'
p52
sg25
g26
sg27
S'4646867128'
p53
sg29
S'0.23'
p54
sa(dp55
g3
S'hh8c102140'
p56
sg5
S'Pinnacle'
p57
sg7
g44
sg9
g45
sg11
S'3848'
p58
sg13
S'0:1'
p59
sg15
g48
sg17
S'199529.3'
p60
sg19
S'Success'
p61
sg21
V\u5927\u74031.5
p62
sg23
g52
sg25
g26
sg27
S'482677208'
p63
sg29
S'4.47'
p64
sa(dp65
g3
S'hh8c102134'
p66
sg5
S'Pinnacle'
p67
sg7
S'603.00'
p68
sg9
S'1.061'
p69
sg11
S'19999'
p70
sg13
S'1:1'
p71
sg15
S'00:44:53'
p72
sg17
S'159147'
p73
sg19
S'Success'
p74
sg21
V\u5c0f\u74033
p75
sg23
S'Helsingborgs <> AIK Solna'
p76
sg25
g26
sg27
S'482677899'
p77
sg29
S'1.05'
p78
sa(dp79
g3
S'yanjiang02'
p80
sg5
S'Zhibo'
p81
sg7
g68
sg9
g69
sg11
S'20396'
p82
sg13
S'1:1'
p83
sg15
g72
sg17
S'79793.85'
p84
sg19
S'Waiting'
p85
sg21
V\u5927\u74033
p86
sg23
g76
sg25
g26
sg27
S'1507031409013567'
p87
sg29
S'1.0101'
p88
sa(dp89
g3
S'sos002'
p90
sg5
S'Zhibo'
p91
sg7
S'5.44'
p92
sg9
S'1.026'
p93
sg11
S'500'
p94
sg13
S'1:1'
p95
sg15
S'00:58:29'
p96
sg17
S'264017.4'
p97
sg19
S'Success'
p98
sg21
V\u5c0f\u74032.5
p99
sg23
S'KuPS <> Inter Turku'
p100
sg25
g26
sg27
S'1507191301448708'
p101
sg29
S'0.95'
p102
sa(dp103
g3
S'hh8c102136'
p104
sg5
S'Pinnacle'
p105
sg7
g92
sg9
g93
sg11
S'468'
p106
sg13
S'1:1'
p107
sg15
g96
sg17
S'179224.7'
p108
sg19
g20
sg21
V\u5927\u74032.5
p109
sg23
g100
sg25
g26
sg27
S'482683046'
p110
sg29
S'1.08'
p111
sa(dp112
g3
S'ehsc1aa004'
p113
sg5
S'Sbo'
p114
sg7
S'127.44'
p115
sg9
S'1.021'
p116
sg11
S'20000'
p117
sg13
S'1:1'
p118
sg15
S'01:08:36'
p119
sg17
S'237106.6'
p120
sg19
S'Waiting'
p121
sg21
V\u5c0f\u74032.5
p122
sg23
S'KuPS <> Inter Turku'
p123
sg25
g26
sg27
S'4646915481'
p124
sg29
S'0.58'
p125
sa(dp126
g3
S'ehsc1aa004'
p127
sg5
S'Sbo'
p128
sg7
g115
sg9
g116
sg11
S'11472'
p129
sg13
S'1:1'
p130
sg15
g119
sg17
S'225634.8'
p131
sg19
S'Waiting'
p132
sg21
V\u5927\u74032.5
p133
sg23
g123
sg25
g26
sg27
S'4646915599'
p134
sg29
S'1.7544'
p135
sa(dp136
g3
S'ehsc1aa010'
p137
sg5
S'Sbo'
p138
sg7
S'147.50'
p139
sg9
S'1.032'
p140
sg11
S'19999'
p141
sg13
S'2:1'
p142
sg15
S'01:13:28'
p143
sg17
S'171193.5'
p144
sg19
S'Waiting'
p145
sg21
V\u5c0f\u74033.5
p146
sg23
S'Helsingborgs <> AIK Solna'
p147
sg25
g26
sg27
S'4646926771'
p148
sg29
S'0.31'
p149
sa(dp150
g3
S'hh8c102134'
p151
sg5
S'Pinnacle'
p152
sg7
g139
sg9
g140
sg11
S'6050'
p153
sg13
S'2:1'
p154
sg15
g143
sg17
S'153097'
p155
sg19
S'Success'
p156
sg21
V\u5927\u74033.5
p157
sg23
g147
sg25
g26
sg27
S'482685366'
p158
sg29
S'3.33'
p159
sa(dp160
g3
S'ehsc1aa004'
p161
sg5
S'Sbo'
p162
sg7
S'68.16'
p163
sg9
S'1.024'
p164
sg11
S'18200'
p165
sg13
S'1:1'
p166
sg15
S'01:16:30'
p167
sg17
S'207434.8'
p168
sg19
S'Waiting'
p169
sg21
V\u5c0f\u74032.5
p170
sg23
S'KuPS <> Inter Turku'
p171
sg25
g26
sg27
S'4646933035'
p172
sg29
S'0.2'
p173
sa(dp174
g3
S'hh8c102137'
p175
sg5
S'Pinnacle'
p176
sg7
g163
sg9
g164
sg11
S'3568'
p177
sg13
S'1:1'
p178
sg15
g167
sg17
S'190484.8'
p179
sg19
g20
sg21
V\u5927\u74032.5
p180
sg23
g171
sg25
g26
sg27
S'482685766'
p181
sg29
S'5.12'
p182
sa(dp183
g3
S'ehsc1aa003'
p184
sg5
S'Sbo'
p185
sg7
S'-8.18'
p186
sg9
S'1.024'
p187
sg11
S'500'
p188
sg13
S'1:1'
p189
sg15
S'01:16:52'
p190
sg17
S'140919.9'
p191
sg19
S'Waiting'
p192
sg21
V\u5c0f\u74032.5
p193
sg23
S'KuPS <> Inter Turku'
p194
sg25
g26
sg27
S'4646933034'
p195
sg29
S'0.2'
p196
sa(dp197
g3
S'ehsc1aa003'
p198
sg5
S'Sbo'
p199
sg7
g186
sg9
g187
sg11
S'108'
p200
sg13
S'1:1'
p201
sg15
g190
sg17
S'140812.1'
p202
sg19
S'Waiting'
p203
sg21
V\u5927\u74032.5
p204
sg23
g194
sg25
g26
sg27
S'4646933942'
p205
sg29
S'4.5455'
p206
sa(dp207
g3
S'sos006'
p208
sg5
S'Zhibo'
p209
sg7
S'0.01'
p210
sg9
S'1.085'
p211
sg11
S'6759'
p212
sg13
S'1:1'
p213
sg15
S'02:23:17'
p214
sg17
S'128219.1'
p215
sg19
S'Waiting'
p216
sg21
V\u5c0f\u74032.75
p217
sg23
S'Sevilla (n) <> AD Alcorcon'
p218
sg25
g26
sg27
S'1507191426328570'
p219
sg29
S'0.89'
p220
sa(dp221
g3
S'ehsc1aa006'
p222
sg5
S'Sbo'
p223
sg7
g210
sg9
g211
sg11
S'6015'
p224
sg13
S'1:1'
p225
sg15
g214
sg17
S'200448.1'
p226
sg19
S'Waiting'
p227
sg21
V\u5927\u74032.75
p228
sg23
g218
sg25
g26
sg27
S'4647053507'
p229
sg29
S'1.1236'
p230
sa(dp231
g3
S'sos006'
p232
sg5
S'Zhibo'
p233
sg7
S'74.33'
p234
sg9
S'1.021'
p235
sg11
S'7343'
p236
sg13
S'1:1'
p237
sg15
S'02:29:08'
p238
sg17
S'120876.1'
p239
sg19
S'Success'
p240
sg21
V\u5c0f\u74032.5
p241
sg23
S'Sevilla (n) <> AD Alcorcon'
p242
sg25
g26
sg27
S'1507191432244349'
p243
sg29
S'0.99'
p244
sa(dp245
g3
S'ehsc1aa006'
p246
sg5
S'Sbo'
p247
sg7
g234
sg9
g235
sg11
S'7195'
p248
sg13
S'1:1'
p249
sg15
g238
sg17
S'193253.6'
p250
sg19
S'Waiting'
p251
sg21
V\u5927\u74032.5
p252
sg23
g242
sg25
g26
sg27
S'4647062249'
p253
sg29
S'1.0309'
p254
sa(dp255
g3
S'sos004'
p256
sg5
S'Zhibo'
p257
sg7
S'-7.11'
p258
sg9
S'1.017'
p259
sg11
S'14999'
p260
sg13
S'0:0'
p261
sg15
S'03:23:13'
p262
sg17
S'261713.2'
p263
sg19
S'Waiting'
p264
sg21
V\u5c0f\u74031.75
p265
sg23
S'Fluminense <> Vasco da Gama'
p266
sg25
g26
sg27
S'1507191525568855'
p267
sg29
S'0.9'
p268
sa(dp269
g3
S'hh8c102137'
p270
sg5
S'Pinnacle'
p271
sg7
g258
sg9
g259
sg11
S'13506'
p272
sg13
S'0:0'
p273
sg15
g262
sg17
S'176978.8'
p274
sg19
S'Success'
p275
sg21
V\u5927\u74031.75
p276
sg23
g266
sg25
g26
sg27
S'482720372'
p277
sg29
S'1.11'
p278
sa(dp279
g3
S'sos004'
p280
sg5
S'Zhibo'
p281
sg7
S'164.62'
p282
sg9
S'1.022'
p283
sg11
S'14457'
p284
sg13
S'0:0'
p285
sg15
S'03:24:38'
p286
sg17
S'247256.2'
p287
sg19
S'Waiting'
p288
sg21
V\u5c0f\u74031.5
p289
sg23
S'Fluminense <> Vasco da Gama'
p290
sg25
g26
sg27
S'1507191527538256'
p291
sg29
S'1.0638'
p292
sa(dp293
g3
S'hh8c102137'
p294
sg5
S'Pinnacle'
p295
sg7
g282
sg9
g283
sg11
S'15215'
p296
sg13
S'0:0'
p297
sg15
g286
sg17
S'161763.8'
p298
sg19
g20
sg21
V\u5927\u74031.5
p299
sg23
g290
sg25
g26
sg27
S'482720765'
p300
sg29
S'0.961'
p301
sa(dp302
g3
S'sos003'
p303
sg5
S'Zhibo'
p304
sg7
S'-8.45'
p305
sg9
S'1.023'
p306
sg11
S'13487'
p307
sg13
S'0:0'
p308
sg15
S'03:41:26'
p309
sg17
S'146881.7'
p310
sg19
S'Waiting'
p311
sg21
V\u5c0f\u74031
p312
sg23
S'Figueirense <> Coritiba'
p313
sg25
g26
sg27
S'1507191544015726'
p314
sg29
S'1.1494'
p315
sa(dp316
g3
S'hh8c102135'
p317
sg5
S'Pinnacle'
p318
sg7
g305
sg9
g306
sg11
S'15510'
p319
sg13
S'0:0'
p320
sg15
g309
sg17
S'216173.9'
p321
sg19
S'Success'
p322
sg21
V\u5927\u74031
p323
sg23
g313
sg25
g26
sg27
S'482723987'
p324
sg29
S'0.869'
p325
sa(dp326
g3
S'ehsc1aa010'
p327
sg5
S'Sbo'
p328
sg7
S'64.80'
p329
sg9
S'1.021'
p330
sg11
S'18306'
p331
sg13
S'0:1'
p332
sg15
S'03:44:57'
p333
sg17
S'152937.5'
p334
sg19
S'Waiting'
p335
sg21
V\u5c0f\u74031.5
p336
sg23
S'Anzhi Makhachkala <> Kryliya Sovetov'
p337
sg25
g26
sg27
S'4647145889'
p338
sg29
S'0.21'
p339
sa(dp340
g3
S'hh8c102134'
p341
sg5
S'Pinnacle'
p342
sg7
g329
sg9
g330
sg11
S'3780'
p343
sg13
S'0:1'
p344
sg15
g333
sg17
S'175513.5'
p345
sg19
g20
sg21
V\u5927\u74031.5
p346
sg23
g337
sg25
g26
sg27
S'482724322'
p347
sg29
S'4.86'
p348
sa(dp349
g3
S'sos007'
p350
sg5
S'Zhibo'
p351
sg7
S'-23.42'
p352
sg9
S'1.021'
p353
sg11
S'6549'
p354
sg13
S'1:2'
p355
sg15
S'04:12:08'
p356
sg17
S'199281.3'
p357
sg19
S'Success'
p358
sg21
V\u5c0f\u74034
p359
sg23
S'San Martin San Juan <> Atletico Huracan'
p360
sg25
g26
sg27
S'1507191615007242'
p361
sg29
S'1.1236'
p362
sa(dp363
g3
S'hh8c102139'
p364
sg5
S'Pinnacle'
p365
sg7
g352
sg9
g353
sg11
S'7381'
p366
sg13
S'1:2'
p367
sg15
g356
sg17
S'193417.8'
p368
sg19
g20
sg21
V\u5927\u74034
p369
sg23
g360
sg25
g26
sg27
S'482734211'
p370
sg29
S'0.884'
p371
sa(dp372
g3
S'sos003'
p373
sg5
S'Zhibo'
p374
sg7
S'178.72'
p375
sg9
S'1.030'
p376
sg11
S'15000'
p377
sg13
S'0:0'
p378
sg15
S'04:28:16'
p379
sg17
S'131881.7'
p380
sg19
S'Success'
p381
sg21
V\u5c0f\u74030.5
p382
sg23
S'Figueirense <> Coritiba'
p383
sg25
g26
sg27
S'1507191631326433'
p384
sg29
S'0.69'
p385
sa(dp386
g3
S'ehsc1aa003'
p387
sg5
S'Sbo'
p388
sg7
g375
sg9
g376
sg11
S'10170'
p389
sg13
S'0:0'
p390
sg15
g379
sg17
S'131244.6'
p391
sg19
S'Waiting'
p392
sg21
V\u5927\u74030.5
p393
sg23
g383
sg25
g26
sg27
S'4647191947'
p394
sg29
S'1.4925'
p395
sa(dp396
g3
S'ehsc1aa009'
p397
sg5
S'Sbo'
p398
sg7
S'19.39'
p399
sg9
S'1.025'
p400
sg11
S'7906'
p401
sg13
S'0:0'
p402
sg15
S'04:33:25'
p403
sg17
S'197841.3'
p404
sg19
S'Waiting'
p405
sg21
V\u5c0f\u74030.5
p406
sg23
S'Club Atletico Tigre <> Newells Old Boys'
p407
sg25
g26
sg27
S'4647202504'
p408
sg29
S'0.61'
p409
sa(dp410
g3
S'hh8c102133'
p411
sg5
S'Pinnacle'
p412
sg7
g399
sg9
g400
sg11
S'4803'
p413
sg13
S'0:0'
p414
sg15
g403
sg17
S'157005.4'
p415
sg19
g20
sg21
V\u5927\u74030.5
p416
sg23
g407
sg25
g26
sg27
S'482736923'
p417
sg29
S'1.65'
p418
sa(dp419
g3
S'ehsc1aa009'
p420
sg5
S'Sbo'
p421
sg7
S'-0.01'
p422
sg9
S'1.049'
p423
sg11
S'10690'
p424
sg13
S'0:0'
p425
sg15
S'04:42:06'
p426
sg17
S'187151.3'
p427
sg19
S'Waiting'
p428
sg21
V\u5c0f\u74030.5
p429
sg23
S'Club Atletico Tigre <> Newells Old Boys'
p430
sg25
g26
sg27
S'4647217902'
p431
sg29
S'0.23'
p432
sa(dp433
g3
S'ehsc1aa009'
p434
sg5
S'Sbo'
p435
sg7
g422
sg9
g423
sg11
S'2458'
p436
sg13
S'0:0'
p437
sg15
g426
sg17
S'184693.5'
p438
sg19
S'Waiting'
p439
sg21
V\u5927\u74030.5
p440
sg23
g430
sg25
g26
sg27
S'4647217916'
p441
sg29
S'4.3478'
p442
sa(dp443
g3
S'ehsc1aa007'
p444
sg5
S'Sbo'
p445
sg7
S'-19.78'
p446
sg9
S'1.036'
p447
sg11
S'15000'
p448
sg13
S'2:2'
p449
sg15
S'04:43:29'
p450
sg17
S'153957.9'
p451
sg19
S'Waiting'
p452
sg21
V\u5c0f\u74034.5
p453
sg23
S'San Martin San Juan <> Atletico Huracan'
p454
sg25
g26
sg27
S'4647219989'
p455
sg29
S'0.28'
p456
sa(dp457
g3
S'hh8c102139'
p458
sg5
S'Pinnacle'
p459
sg7
g446
sg9
g447
sg11
S'4219'
p460
sg13
S'2:2'
p461
sg15
g450
sg17
S'189198.8'
p462
sg19
g20
sg21
V\u5927\u74034.5
p463
sg23
g454
sg25
g26
sg27
S'482739040'
p464
sg29
S'3.55'
p465
sa.