(lp1
(dp2
S'Username'
p3
S'ehet711004'
p4
sS'Account'
p5
S'Sbo'
p6
sS'Income'
p7
S'2.68'
p8
sS'Waterlevel'
p9
S'1.011'
p10
sS'Amount'
p11
S'499'
p12
sS'Score'
p13
S'0:0'
p14
sS'Time'
p15
S'08:53:10'
p16
sS'Balance'
p17
S'299501.6'
p18
sS'Status'
p19
S'Waiting'
p20
sS'Deal'
p21
V\u5c0f\u74031.5
p22
sS'Game'
p23
S'Sarmiento Junin <> Boca Juniors'
p24
sS'Date'
p25
S'2015-07-16'
p26
sS'Ticket'
p27
S'4637385246'
p28
sS'Odd'
p29
S'1.1236'
p30
sa(dp31
g3
S'ehet711004'
p32
sg5
S'Sbo'
p33
sg7
S'2.68'
p34
sg9
S'1.011'
p35
sg11
S'499'
p36
sg13
S'0:0'
p37
sg15
S'08:53:12'
p38
sg17
S'299003.2'
p39
sg19
g20
sg21
V\u5c0f\u74031.5
p40
sg23
S'Sarmiento Junin <> Boca Juniors'
p41
sg25
g26
sg27
S'4637385296'
p42
sg29
S'1.1236'
p43
sa(dp44
g3
S'ehet711004'
p45
sg5
S'Sbo'
p46
sg7
S'11.80'
p47
sg9
S'1.045'
p48
sg11
S'500'
p49
sg13
S'0:0'
p50
sg15
S'08:53:15'
p51
sg17
S'298503.9'
p52
sg19
g20
sg21
V\u5c0f\u74031.5
p53
sg23
S'Sarmiento Junin <> Boca Juniors'
p54
sg25
g26
sg27
S'4637385333'
p55
sg29
S'1.1236'
p56
sa(dp57
g3
S'ehet711006'
p58
sg5
S'Sbo'
p59
sg7
S'11.00'
p60
sg9
S'1.043'
p61
sg11
S'500'
p62
sg13
S'0:0'
p63
sg15
S'08:58:36'
p64
sg17
S'299500'
p65
sg19
g20
sg21
V\u5c0f\u74031.5
p66
sg23
S'Sarmiento Junin <> Boca Juniors'
p67
sg25
g26
sg27
S'4637390661'
p68
sg29
S'0.98'
p69
sa(dp70
g3
S'ehet711006'
p71
sg5
S'Sbo'
p72
sg7
S'11.00'
p73
sg9
S'1.043'
p74
sg11
S'500'
p75
sg13
S'0:0'
p76
sg15
S'08:58:38'
p77
sg17
S'299000'
p78
sg19
g20
sg21
V\u5c0f\u74031.5
p79
sg23
S'Sarmiento Junin <> Boca Juniors'
p80
sg25
g26
sg27
S'4637390697'
p81
sg29
S'0.98'
p82
sa(dp83
g3
S'yanjiang02'
p84
sg5
S'Zhibo'
p85
sg7
S'11.00'
p86
sg9
S'1.043'
p87
sg11
S'479'
p88
sg13
S'0:0'
p89
sg15
S'08:58:40'
p90
sg17
S'98563'
p91
sg19
g20
sg21
V\u5927\u74031.5
p92
sg23
S'Sarmiento Junin <> Boca Juniors'
p93
sg25
g26
sg27
S'1507122058389065'
p94
sg29
S'1.0638'
p95
sa(dp96
g3
S'ehet711006'
p97
sg5
S'Sbo'
p98
sg7
g86
sg9
g87
sg11
S'500'
p99
sg13
S'0:0'
p100
sg15
g90
sg17
S'298500'
p101
sg19
g20
sg21
V\u5c0f\u74031.5
p102
sg23
g93
sg25
g26
sg27
S'4637390741'
p103
sg29
S'0.98'
p104
sa(dp105
g3
S'ehet711000'
p106
sg5
S'Sbo'
p107
sg7
S'-1.03'
p108
sg9
S'1.000'
p109
sg11
S'479'
p110
sg13
S'0:1'
p111
sg15
S'09:11:58'
p112
sg17
S'299521.9'
p113
sg19
g20
sg21
V\u5927\u74032.25
p114
sg23
S'Sarmiento Junin <> Boca Juniors'
p115
sg25
g26
sg27
S'4637403613'
p116
sg29
S'1.0417'
p117
sa(dp118
g3
S'ehet711000'
p119
sg5
S'Sbo'
p120
sg7
S'-1.03'
p121
sg9
S'1.000'
p122
sg11
S'479'
p123
sg13
S'0:1'
p124
sg15
S'09:12:00'
p125
sg17
S'299043.8'
p126
sg19
g20
sg21
V\u5927\u74032.25
p127
sg23
S'Sarmiento Junin <> Boca Juniors'
p128
sg25
g26
sg27
S'4637403656'
p129
sg29
S'1.0417'
p130
sa(dp131
g3
S'ehet711000'
p132
sg5
S'Sbo'
p133
sg7
S'-1.03'
p134
sg9
S'1.000'
p135
sg11
S'479'
p136
sg13
S'0:1'
p137
sg15
S'09:12:03'
p138
sg17
S'298565.8'
p139
sg19
g20
sg21
V\u5927\u74032.25
p140
sg23
S'Sarmiento Junin <> Boca Juniors'
p141
sg25
g26
sg27
S'4637403700'
p142
sg29
S'1.0417'
p143
sa(dp144
g3
S'ehet711000'
p145
sg5
S'Sbo'
p146
sg7
S'-1.03'
p147
sg9
S'1.000'
p148
sg11
S'479'
p149
sg13
S'0:1'
p150
sg15
S'09:12:05'
p151
sg17
S'298087.7'
p152
sg19
g20
sg21
V\u5927\u74032.25
p153
sg23
S'Sarmiento Junin <> Boca Juniors'
p154
sg25
g26
sg27
S'4637403732'
p155
sg29
S'1.0417'
p156
sa(dp157
g3
S'ehet711000'
p158
sg5
S'Sbo'
p159
sg7
S'-1.03'
p160
sg9
S'1.000'
p161
sg11
S'479'
p162
sg13
S'0:1'
p163
sg15
S'09:12:07'
p164
sg17
S'297609.6'
p165
sg19
g20
sg21
V\u5927\u74032.25
p166
sg23
S'Sarmiento Junin <> Boca Juniors'
p167
sg25
g26
sg27
S'4637403767'
p168
sg29
S'1.0417'
p169
sa(dp170
g3
S'ehet711000'
p171
sg5
S'Sbo'
p172
sg7
S'-1.03'
p173
sg9
S'1.000'
p174
sg11
S'479'
p175
sg13
S'0:1'
p176
sg15
S'09:12:09'
p177
sg17
S'297131.5'
p178
sg19
g20
sg21
V\u5927\u74032.25
p179
sg23
S'Sarmiento Junin <> Boca Juniors'
p180
sg25
g26
sg27
S'4637403798'
p181
sg29
S'1.0417'
p182
sa(dp183
g3
S'ck8t731007'
p184
sg5
S'Pinnacle'
p185
sg7
S'-0.39'
p186
sg9
S'1.000'
p187
sg11
S'480'
p188
sg13
S'0:1'
p189
sg15
S'09:13:38'
p190
sg17
S'205315.2'
p191
sg19
V\u6ca1\u6709\u6b64\u5355
p192
sg21
V\u5927\u74032.25
p193
sg23
S'Sarmiento Junin <> Boca Juniors'
p194
sg25
g26
sg27
S'481439928'
p195
sg29
S'1.04'
p196
sa(dp197
g3
S'ehet711003'
p198
sg5
S'Sbo'
p199
sg7
S'0.50'
p200
sg9
S'1.000'
p201
sg11
S'555'
p202
sg13
S'0:0'
p203
sg15
S'09:22:13'
p204
sg17
S'299445'
p205
sg19
g20
sg21
V\u5927\u74032.5
p206
sg23
S'Mexico <> Guatemala'
p207
sg25
g26
sg27
S'4637413751'
p208
sg29
S'0.9'
p209
sa(dp210
g3
S'ehet711003'
p211
sg5
S'Sbo'
p212
sg7
S'0.50'
p213
sg9
S'1.000'
p214
sg11
S'555'
p215
sg13
S'0:0'
p216
sg15
S'09:22:15'
p217
sg17
S'298890'
p218
sg19
g20
sg21
V\u5927\u74032.5
p219
sg23
S'Mexico <> Guatemala'
p220
sg25
g26
sg27
S'4637413783'
p221
sg29
S'0.9'
p222
sa(dp223
g3
S'yanjing06'
p224
sg5
S'Zhibo'
p225
sg7
S'8.80'
p226
sg9
S'1.039'
p227
sg11
S'500'
p228
sg13
S'1:0'
p229
sg15
S'23:47:37'
p230
sg17
S'99500'
p231
sg19
g20
sg21
V\u5c0f\u74033.25
p232
sg23
S'Inter Turku <> IFK Mariehamn'
p233
sg25
g26
sg27
S'1507131147345233'
p234
sg29
S'0.98'
p235
sa(dp236
g3
S'ck8t731004'
p237
sg5
S'Pinnacle'
p238
sg7
g226
sg9
g227
sg11
S'480'
p239
sg13
S'1:0'
p240
sg15
g230
sg17
S'201105.7'
p241
sg19
g192
sg21
V\u5927\u74033.25
p242
sg23
g233
sg25
g26
sg27
S'481495400'
p243
sg29
S'1.06'
p244
sa(dp245
g3
S'yanjing06'
p246
sg5
S'Zhibo'
p247
sg7
S'-2.51'
p248
sg9
S'1.000'
p249
sg11
S'499'
p250
sg13
S'1:0'
p251
sg15
S'23:47:56'
p252
sg17
S'99001'
p253
sg19
g20
sg21
V\u5c0f\u74033.25
p254
sg23
S'Inter Turku <> IFK Mariehamn'
p255
sg25
g26
sg27
S'1507131147388170'
p256
sg29
S'0.98'
p257
sa(dp258
g3
S'ehet711003'
p259
sg5
S'Sbo'
p260
sg7
g248
sg9
g249
sg11
S'491'
p261
sg13
S'1:0'
p262
sg15
g252
sg17
S'298402.7'
p263
sg19
g20
sg21
V\u5927\u74033.25
p264
sg23
g255
sg25
g26
sg27
S'4637907123'
p265
sg29
S'1.0101'
p266
sa.